target datalayout = "e-m:e-p270:32:32-p271:32:32-p272:64:64-i64:64-i128:128-f80:128-n8:16:32:64-S128"
target triple = "x86_64-pc-linux-gnu"

%"class.llvm::StringRef" = type { ptr, i64 }
%"class.clang::SourceLocation" = type { i32 }
%"class.clang::IdentifierInfo" = type { i64, ptr, ptr }
%"class.llvm::StringMapEntry" = type { %"class.llvm::StringMapEntryStorage" }
%"class.llvm::StringMapEntryStorage" = type { %"class.llvm::StringMapEntryBase", ptr }
%"class.llvm::StringMapEntryBase" = type { i64 }
%"class.std::basic_string_view" = type { i64, ptr }
%"class.clang::Token" = type <{ i32, i32, ptr, i16, i16, [4 x i8] }>

; Function Attrs: inlinehint mustprogress nounwind uwtable
define linkonce_odr hidden noundef zeroext i1 @_ZN5clang3tok15isStringLiteralENS0_9TokenKindE(i16 noundef zeroext %0) #8 comdat {
  %2 = alloca i16, align 2
  store i16 %0, ptr %2, align 2, !tbaa !253
  %3 = load i16, ptr %2, align 2, !tbaa !253
  %4 = zext i16 %3 to i32
  %5 = icmp eq i32 %4, 14
  br i1 %5, label %22, label %6

6:                                                ; preds = %1
  %7 = load i16, ptr %2, align 2, !tbaa !253
  %8 = zext i16 %7 to i32
  %9 = icmp eq i32 %8, 15
  br i1 %9, label %22, label %10

10:                                               ; preds = %6
  %11 = load i16, ptr %2, align 2, !tbaa !253
  %12 = zext i16 %11 to i32
  %13 = icmp eq i32 %12, 17
  br i1 %13, label %22, label %14

14:                                               ; preds = %10
  %15 = load i16, ptr %2, align 2, !tbaa !253
  %16 = zext i16 %15 to i32
  %17 = icmp eq i32 %16, 18
  br i1 %17, label %22, label %18

18:                                               ; preds = %14
  %19 = load i16, ptr %2, align 2, !tbaa !253
  %20 = zext i16 %19 to i32
  %21 = icmp eq i32 %20, 19
  br label %22

22:                                               ; preds = %18, %14, %10, %6, %1
  %23 = phi i1 [ true, %14 ], [ true, %10 ], [ true, %6 ], [ true, %1 ], [ %21, %18 ]
  ret i1 %23
}

; Function Attrs: mustprogress nounwind uwtable
define linkonce_odr hidden noundef i64 @_ZNK4llvm18StringMapEntryBase12getKeyLengthEv(ptr noundef nonnull align 8 dereferenceable(8) %0) #4 comdat align 2 {
  %2 = alloca ptr, align 8
  store ptr %0, ptr %2, align 8, !tbaa !152
  %3 = load ptr, ptr %2, align 8
  %4 = getelementptr inbounds nuw %"class.llvm::StringMapEntryBase", ptr %3, i32 0, i32 0
  %5 = load i64, ptr %4, align 8, !tbaa !154
  ret i64 %5
}

; Function Attrs: mustprogress nounwind uwtable
define linkonce_odr hidden noundef ptr @_ZNK4llvm14StringMapEntryIPN5clang14IdentifierInfoEE10getKeyDataEv(ptr noundef nonnull align 8 dereferenceable(16) %0) #4 comdat align 2 {
  %2 = alloca ptr, align 8
  store ptr %0, ptr %2, align 8, !tbaa !151
  %3 = load ptr, ptr %2, align 8
  %4 = getelementptr inbounds %"class.llvm::StringMapEntry", ptr %3, i64 1
  ret ptr %4
}

; Function Attrs: inlinehint mustprogress uwtable
define linkonce_odr hidden noundef zeroext i1 @_ZN5clang3tok9isLiteralENS0_9TokenKindE(i16 noundef zeroext %0) #7 comdat {
  %2 = alloca i16, align 2
  store i16 %0, ptr %2, align 2, !tbaa !253
  %3 = load i16, ptr %2, align 2, !tbaa !253
  %4 = zext i16 %3 to i32
  %5 = icmp eq i32 %4, 7
  br i1 %5, label %37, label %6

6:                                                ; preds = %1
  %7 = load i16, ptr %2, align 2, !tbaa !253
  %8 = zext i16 %7 to i32
  %9 = icmp eq i32 %8, 9
  br i1 %9, label %37, label %10

10:                                               ; preds = %6
  %11 = load i16, ptr %2, align 2, !tbaa !253
  %12 = zext i16 %11 to i32
  %13 = icmp eq i32 %12, 10
  br i1 %13, label %37, label %14

14:                                               ; preds = %10
  %15 = load i16, ptr %2, align 2, !tbaa !253
  %16 = zext i16 %15 to i32
  %17 = icmp eq i32 %16, 11
  br i1 %17, label %37, label %18

18:                                               ; preds = %14
  %19 = load i16, ptr %2, align 2, !tbaa !253
  %20 = zext i16 %19 to i32
  %21 = icmp eq i32 %20, 12
  br i1 %21, label %37, label %22

22:                                               ; preds = %18
  %23 = load i16, ptr %2, align 2, !tbaa !253
  %24 = zext i16 %23 to i32
  %25 = icmp eq i32 %24, 13
  br i1 %25, label %37, label %26

26:                                               ; preds = %22
  %27 = load i16, ptr %2, align 2, !tbaa !253
  %28 = call noundef zeroext i1 @_ZN5clang3tok15isStringLiteralENS0_9TokenKindE(i16 noundef zeroext %27)
  br i1 %28, label %37, label %29

29:                                               ; preds = %26
  %30 = load i16, ptr %2, align 2, !tbaa !253
  %31 = zext i16 %30 to i32
  %32 = icmp eq i32 %31, 16
  br i1 %32, label %37, label %33

33:                                               ; preds = %29
  %34 = load i16, ptr %2, align 2, !tbaa !253
  %35 = zext i16 %34 to i32
  %36 = icmp eq i32 %35, 8
  br label %37

37:                                               ; preds = %33, %29, %26, %22, %18, %14, %10, %6, %1
  %38 = phi i1 [ true, %29 ], [ true, %26 ], [ true, %22 ], [ true, %18 ], [ true, %14 ], [ true, %10 ], [ true, %6 ], [ true, %1 ], [ %36, %33 ]
  ret i1 %38
}

; Function Attrs: mustprogress nounwind uwtable
define linkonce_odr hidden noundef zeroext i16 @_ZNK5clang5Token7getKindEv(ptr noundef nonnull align 8 dereferenceable(20) %0) #4 comdat align 2 {
  %2 = alloca ptr, align 8
  store ptr %0, ptr %2, align 8, !tbaa !164
  %3 = load ptr, ptr %2, align 8
  %4 = getelementptr inbounds nuw %"class.clang::Token", ptr %3, i32 0, i32 3
  %5 = load i16, ptr %4, align 8, !tbaa !254
  ret i16 %5
}

; Function Attrs: mustprogress nounwind uwtable
define linkonce_odr hidden void @_ZNSt17basic_string_viewIcSt11char_traitsIcEEC2EPKcm(ptr noundef nonnull align 8 dereferenceable(16) %0, ptr noundef %1, i64 noundef %2) unnamed_addr #4 comdat align 2 {
  %4 = alloca ptr, align 8
  %5 = alloca ptr, align 8
  %6 = alloca i64, align 8
  store ptr %0, ptr %4, align 8, !tbaa !196
  store ptr %1, ptr %5, align 8, !tbaa !10
  store i64 %2, ptr %6, align 8, !tbaa !35
  %7 = load ptr, ptr %4, align 8
  %8 = getelementptr inbounds nuw %"class.std::basic_string_view", ptr %7, i32 0, i32 0
  %9 = load i64, ptr %6, align 8, !tbaa !35
  store i64 %9, ptr %8, align 8, !tbaa !205
  %10 = getelementptr inbounds nuw %"class.std::basic_string_view", ptr %7, i32 0, i32 1
  %11 = load ptr, ptr %5, align 8, !tbaa !10
  store ptr %11, ptr %10, align 8, !tbaa !207
  ret void
}

; Function Attrs: mustprogress nounwind uwtable
define linkonce_odr hidden noundef i64 @_ZNK4llvm9StringRef4sizeEv(ptr noundef nonnull align 8 dereferenceable(16) %0) #4 comdat align 2 {
  %2 = alloca ptr, align 8
  store ptr %0, ptr %2, align 8, !tbaa !16
  %3 = load ptr, ptr %2, align 8
  %4 = getelementptr inbounds nuw %"class.llvm::StringRef", ptr %3, i32 0, i32 1
  %5 = load i64, ptr %4, align 8, !tbaa !21
  ret i64 %5
}

; Function Attrs: mustprogress nounwind uwtable
define linkonce_odr hidden noundef ptr @_ZNK4llvm9StringRef4dataEv(ptr noundef nonnull align 8 dereferenceable(16) %0) #4 comdat align 2 {
  %2 = alloca ptr, align 8
  store ptr %0, ptr %2, align 8, !tbaa !16
  %3 = load ptr, ptr %2, align 8
  %4 = getelementptr inbounds nuw %"class.llvm::StringRef", ptr %3, i32 0, i32 0
  %5 = load ptr, ptr %4, align 8, !tbaa !18
  ret ptr %5
}

; Function Attrs: mustprogress nounwind uwtable
define linkonce_odr hidden void @_ZN4llvm9StringRefC2EPKcm(ptr noundef nonnull align 8 dereferenceable(16) %0, ptr noundef %1, i64 noundef %2) unnamed_addr #4 comdat align 2 {
  %4 = alloca ptr, align 8
  %5 = alloca ptr, align 8
  %6 = alloca i64, align 8
  store ptr %0, ptr %4, align 8, !tbaa !16
  store ptr %1, ptr %5, align 8, !tbaa !10
  store i64 %2, ptr %6, align 8, !tbaa !35
  %7 = load ptr, ptr %4, align 8
  %8 = getelementptr inbounds nuw %"class.llvm::StringRef", ptr %7, i32 0, i32 0
  %9 = load ptr, ptr %5, align 8, !tbaa !10
  store ptr %9, ptr %8, align 8, !tbaa !18
  %10 = getelementptr inbounds nuw %"class.llvm::StringRef", ptr %7, i32 0, i32 1
  %11 = load i64, ptr %6, align 8, !tbaa !35
  store i64 %11, ptr %10, align 8, !tbaa !21
  ret void
}

; Function Attrs: mustprogress uwtable
define linkonce_odr hidden noundef i32 @_ZNK5clang14IdentifierInfo9getLengthEv(ptr noundef nonnull align 8 dereferenceable(24) %0) #2 comdat align 2 {
  %2 = alloca ptr, align 8
  store ptr %0, ptr %2, align 8, !tbaa !146
  %3 = load ptr, ptr %2, align 8
  %4 = getelementptr inbounds nuw %"class.clang::IdentifierInfo", ptr %3, i32 0, i32 2
  %5 = load ptr, ptr %4, align 8, !tbaa !148
  %6 = call noundef i64 @_ZNK4llvm18StringMapEntryBase12getKeyLengthEv(ptr noundef nonnull align 8 dereferenceable(8) %5)
  %7 = trunc i64 %6 to i32
  ret i32 %7
}

; Function Attrs: mustprogress uwtable
define linkonce_odr hidden noundef ptr @_ZNK5clang14IdentifierInfo12getNameStartEv(ptr noundef nonnull align 8 dereferenceable(24) %0) #2 comdat align 2 {
  %2 = alloca ptr, align 8
  store ptr %0, ptr %2, align 8, !tbaa !146
  %3 = load ptr, ptr %2, align 8
  %4 = getelementptr inbounds nuw %"class.clang::IdentifierInfo", ptr %3, i32 0, i32 2
  %5 = load ptr, ptr %4, align 8, !tbaa !148
  %6 = call noundef ptr @_ZNK4llvm14StringMapEntryIPN5clang14IdentifierInfoEE10getKeyDataEv(ptr noundef nonnull align 8 dereferenceable(16) %5)
  ret ptr %6
}

; Function Attrs: mustprogress nounwind uwtable
define linkonce_odr hidden noundef zeroext i1 @_ZNK5clang5Token2isENS_3tok9TokenKindE(ptr noundef nonnull align 8 dereferenceable(20) %0, i16 noundef zeroext %1) #4 comdat align 2 {
  %3 = alloca ptr, align 8
  %4 = alloca i16, align 2
  store ptr %0, ptr %3, align 8, !tbaa !164
  store i16 %1, ptr %4, align 2, !tbaa !253
  %5 = load ptr, ptr %3, align 8
  %6 = getelementptr inbounds nuw %"class.clang::Token", ptr %5, i32 0, i32 3
  %7 = load i16, ptr %6, align 8, !tbaa !254
  %8 = zext i16 %7 to i32
  %9 = load i16, ptr %4, align 2, !tbaa !253
  %10 = zext i16 %9 to i32
  %11 = icmp eq i32 %8, %10
  ret i1 %11
}

; Function Attrs: mustprogress uwtable
define linkonce_odr hidden noundef zeroext i1 @_ZNK5clang5Token9isLiteralEv(ptr noundef nonnull align 8 dereferenceable(20) %0) #2 comdat align 2 {
  %2 = alloca ptr, align 8
  store ptr %0, ptr %2, align 8, !tbaa !164
  %3 = load ptr, ptr %2, align 8
  %4 = call noundef zeroext i16 @_ZNK5clang5Token7getKindEv(ptr noundef nonnull align 8 dereferenceable(20) %3)
  %5 = call noundef zeroext i1 @_ZN5clang3tok9isLiteralENS0_9TokenKindE(i16 noundef zeroext %4)
  ret i1 %5
}

; Function Attrs: mustprogress nounwind uwtable
define linkonce_odr hidden { i64, ptr } @_ZNK4llvm9StringRefcvSt17basic_string_viewIcSt11char_traitsIcEEEv(ptr noundef nonnull align 8 dereferenceable(16) %0) #4 comdat align 2 {
  %2 = alloca %"class.std::basic_string_view", align 8
  %3 = alloca ptr, align 8
  store ptr %0, ptr %3, align 8, !tbaa !16
  %4 = load ptr, ptr %3, align 8
  %5 = call noundef ptr @_ZNK4llvm9StringRef4dataEv(ptr noundef nonnull align 8 dereferenceable(16) %4)
  %6 = call noundef i64 @_ZNK4llvm9StringRef4sizeEv(ptr noundef nonnull align 8 dereferenceable(16) %4)
  call void @_ZNSt17basic_string_viewIcSt11char_traitsIcEEC2EPKcm(ptr noundef nonnull align 8 dereferenceable(16) %2, ptr noundef %5, i64 noundef %6) #20
  %7 = load { i64, ptr }, ptr %2, align 8
  ret { i64, ptr } %7
}

; Function Attrs: mustprogress uwtable
define linkonce_odr hidden { ptr, i64 } @_ZNK5clang14IdentifierInfo7getNameEv(ptr noundef nonnull align 8 dereferenceable(24) %0) #2 comdat align 2 {
  %2 = alloca %"class.llvm::StringRef", align 8
  %3 = alloca ptr, align 8
  store ptr %0, ptr %3, align 8, !tbaa !146
  %4 = load ptr, ptr %3, align 8
  %5 = call noundef ptr @_ZNK5clang14IdentifierInfo12getNameStartEv(ptr noundef nonnull align 8 dereferenceable(24) %4)
  %6 = call noundef i32 @_ZNK5clang14IdentifierInfo9getLengthEv(ptr noundef nonnull align 8 dereferenceable(24) %4)
  %7 = zext i32 %6 to i64
  call void @_ZN4llvm9StringRefC2EPKcm(ptr noundef nonnull align 8 dereferenceable(16) %2, ptr noundef %5, i64 noundef %7)
  %8 = load { ptr, i64 }, ptr %2, align 8
  ret { ptr, i64 } %8
}

; Function Attrs: mustprogress uwtable
define linkonce_odr hidden noundef ptr @_ZNK5clang5Token17getIdentifierInfoEv(ptr noundef nonnull align 8 dereferenceable(20) %0) #2 comdat align 2 {
  %2 = alloca ptr, align 8
  %3 = alloca ptr, align 8
  store ptr %0, ptr %3, align 8, !tbaa !164
  %4 = load ptr, ptr %3, align 8
  %5 = call noundef zeroext i1 @_ZNK5clang5Token9isLiteralEv(ptr noundef nonnull align 8 dereferenceable(20) %4)
  br i1 %5, label %6, label %7

6:                                                ; preds = %1
  store ptr null, ptr %2, align 8
  br label %13

7:                                                ; preds = %1
  %8 = call noundef zeroext i1 @_ZNK5clang5Token2isENS_3tok9TokenKindE(ptr noundef nonnull align 8 dereferenceable(20) %4, i16 noundef zeroext 1)
  br i1 %8, label %9, label %10

9:                                                ; preds = %7
  store ptr null, ptr %2, align 8
  br label %13

10:                                               ; preds = %7
  %11 = getelementptr inbounds nuw %"class.clang::Token", ptr %4, i32 0, i32 2
  %12 = load ptr, ptr %11, align 8, !tbaa !190
  store ptr %12, ptr %2, align 8
  br label %13

13:                                               ; preds = %10, %9, %6
  %14 = load ptr, ptr %2, align 8
  ret ptr %14
}

; Function Attrs: mustprogress uwtable
define internal void @_ZN6libcpp12_GLOBAL__N_126internal_ftm_use_callbacks5IfdefEN5clang14SourceLocationERKNS2_5TokenERKNS2_15MacroDefinitionE(ptr noundef nonnull align 8 dereferenceable(16) %0, i32 %1, ptr noundef nonnull align 8 dereferenceable(20) %2, ptr noundef nonnull align 8 dereferenceable(24) %3) unnamed_addr #2 align 2 {
  %5 = alloca %"class.clang::SourceLocation", align 4
  %6 = alloca ptr, align 8
  %7 = alloca ptr, align 8
  %8 = alloca ptr, align 8
  %9 = alloca %"class.std::basic_string_view", align 8
  %10 = alloca %"class.llvm::StringRef", align 8
  %11 = alloca %"class.clang::SourceLocation", align 4
  %12 = getelementptr inbounds nuw %"class.clang::SourceLocation", ptr %5, i32 0, i32 0
  store i32 %1, ptr %12, align 4
  store ptr %0, ptr %6, align 8, !tbaa !53
  store ptr %2, ptr %7, align 8, !tbaa !164
  store ptr %3, ptr %8, align 8, !tbaa !178
  %13 = load ptr, ptr %6, align 8
  call void @llvm.lifetime.start.p0(i64 16, ptr %10) #20
  %14 = load ptr, ptr %7, align 8, !tbaa !164
  %15 = call noundef ptr @_ZNK5clang5Token17getIdentifierInfoEv(ptr noundef nonnull align 8 dereferenceable(20) %14)
  %16 = call { ptr, i64 } @_ZNK5clang14IdentifierInfo7getNameEv(ptr noundef nonnull align 8 dereferenceable(24) %15)
  %17 = getelementptr inbounds nuw { ptr, i64 }, ptr %10, i32 0, i32 0
  %18 = extractvalue { ptr, i64 } %16, 0
  store ptr %18, ptr %17, align 8
  %19 = getelementptr inbounds nuw { ptr, i64 }, ptr %10, i32 0, i32 1
  %20 = extractvalue { ptr, i64 } %16, 1
  store i64 %20, ptr %19, align 8
  %21 = call { i64, ptr } @_ZNK4llvm9StringRefcvSt17basic_string_viewIcSt11char_traitsIcEEEv(ptr noundef nonnull align 8 dereferenceable(16) %10)
  %22 = getelementptr inbounds nuw { i64, ptr }, ptr %9, i32 0, i32 0
  %23 = extractvalue { i64, ptr } %21, 0
  store i64 %23, ptr %22, align 8
  %24 = getelementptr inbounds nuw { i64, ptr }, ptr %9, i32 0, i32 1
  %25 = extractvalue { i64, ptr } %21, 1
  store ptr %25, ptr %24, align 8
  call void @llvm.memcpy.p0.p0.i64(ptr align 4 %11, ptr align 4 %5, i64 4, i1 false), !tbaa.struct !186
  %26 = getelementptr inbounds nuw { i64, ptr }, ptr %9, i32 0, i32 0
  %27 = load i64, ptr %26, align 8
  %28 = getelementptr inbounds nuw { i64, ptr }, ptr %9, i32 0, i32 1
  %29 = load ptr, ptr %28, align 8
  %30 = getelementptr inbounds nuw %"class.clang::SourceLocation", ptr %11, i32 0, i32 0
  %31 = load i32, ptr %30, align 4
  call void @_ZN6libcpp12_GLOBAL__N_126internal_ftm_use_callbacks11check_macroESt17basic_string_viewIcSt11char_traitsIcEEN5clang14SourceLocationE(ptr noundef nonnull align 8 dereferenceable(16) %13, i64 %27, ptr %29, i32 %31)
  call void @llvm.lifetime.end.p0(i64 16, ptr %10) #20
  ret void
}